target datalayout = "e-m:e-p270:32:32-p271:32:32-p272:64:64-i64:64-i128:128-f80:128-n8:16:32:64-S128"
target triple = "x86_64-unknown-linux-gnu"

%"class.cineon::InStream" = type { ptr, ptr }

; Function Attrs: mustprogress uwtable
define hidden noundef zeroext i1 @_ZN6cineon8InStream4SeekElNS0_6OriginE(ptr noundef nonnull align 8 dereferenceable(16) %this, i64 noundef %offset, i32 noundef %origin) unnamed_addr #6 align 2 {
entry:
  %retval = alloca i1, align 1
  %this.addr = alloca ptr, align 8
  %offset.addr = alloca i64, align 8
  %origin.addr = alloca i32, align 4
  %o = alloca i32, align 4
  store ptr %this, ptr %this.addr, align 8
  store i64 %offset, ptr %offset.addr, align 8
  store i32 %origin, ptr %origin.addr, align 4
  %this1 = load ptr, ptr %this.addr, align 8
  store i32 0, ptr %o, align 4
  %0 = load i32, ptr %origin.addr, align 4
  switch i32 %0, label %sw.epilog [
    i32 1, label %sw.bb
    i32 2, label %sw.bb2
    i32 0, label %sw.bb3
  ]

sw.bb:                                            ; preds = %entry
  store i32 1, ptr %o, align 4
  br label %sw.epilog

sw.bb2:                                           ; preds = %entry
  store i32 2, ptr %o, align 4
  br label %sw.epilog

sw.bb3:                                           ; preds = %entry
  store i32 0, ptr %o, align 4
  br label %sw.epilog

sw.epilog:                                        ; preds = %sw.bb3, %sw.bb2, %sw.bb, %entry
  %fp = getelementptr inbounds %"class.cineon::InStream", ptr %this1, i32 0, i32 1
  %1 = load ptr, ptr %fp, align 8
  %cmp = icmp eq ptr %1, null
  br i1 %cmp, label %if.then, label %if.end

if.then:                                          ; preds = %sw.epilog
  store i1 false, ptr %retval, align 1
  br label %return

if.end:                                           ; preds = %sw.epilog
  %fp4 = getelementptr inbounds %"class.cineon::InStream", ptr %this1, i32 0, i32 1
  %2 = load ptr, ptr %fp4, align 8
  %3 = load i64, ptr %offset.addr, align 8
  %4 = load i32, ptr %o, align 4
  %call = call i32 @fseek(ptr noundef %2, i64 noundef %3, i32 noundef %4)
  %cmp5 = icmp eq i32 %call, 0
  store i1 %cmp5, ptr %retval, align 1
  br label %return

return:                                           ; preds = %if.end, %if.then
  %5 = load i1, ptr %retval, align 1
  ret i1 %5
}