; Function Attrs: mustprogress nofree nounwind uwtable
define hidden noundef zeroext i1 @_ZN6cineon8InStream4SeekElNS0_6OriginE(ptr nocapture noundef nonnull readonly align 8 dereferenceable(16) %this, i64 noundef %offset, i32 noundef %origin) unnamed_addr #8 align 2 {
entry:
  %fp = getelementptr inbounds i8, ptr %this, i64 8
  %0 = load ptr, ptr %fp, align 8
  %cmp = icmp eq ptr %0, null
  br i1 %cmp, label %return, label %if.end

if.end:                                           ; preds = %entry
  %switch.selectcmp1 = icmp eq i32 %origin, 1
  %switch.selectcmp = icmp eq i32 %origin, 2
  %switch.select = select i1 %switch.selectcmp, i32 2, i32 0
  %switch.select2 = select i1 %switch.selectcmp1, i32 1, i32 %switch.select
  %call = tail call i32 @fseek(ptr noundef nonnull %0, i64 noundef %offset, i32 noundef %switch.select2)
  %cmp5 = icmp eq i32 %call, 0
  br label %return

return:                                           ; preds = %entry, %if.end
  %retval.0 = phi i1 [ %cmp5, %if.end ], [ false, %entry ]
  ret i1 %retval.0
}